target datalayout = "e-m:e-p270:32:32-p271:32:32-p272:64:64-i64:64-i128:128-f80:128-n8:16:32:64-S128"
target triple = "x86_64-pc-linux-gnu"

%struct._zend_signal_globals_t = type { i32, i32, i32, i32, i8, i8, [65 x %struct._zend_signal_entry_t], [64 x %struct._zend_signal_queue_t], ptr, ptr, ptr }
%struct._zend_signal_entry_t = type { i32, ptr }
%struct._zend_signal_queue_t = type { %struct._zend_signal_t, ptr }
%struct._zend_signal_t = type { i32, ptr, ptr }
%struct.__sigset_t = type { [16 x i64] }
%struct.sigaction = type { %union.anon, %struct.__sigset_t, i32, ptr }
%union.anon = type { ptr }

@zend_signal_globals = global %struct._zend_signal_globals_t zeroinitializer, align 8
@global_sigmask = internal global %struct.__sigset_t zeroinitializer, align 8
@.str = private unnamed_addr constant [39 x i8] c"Error installing signal handler for %d\00", align 1

; Function Attrs: nounwind uwtable
define void @zend_sigaction(i32 noundef %0, ptr noundef %1, ptr noundef %2) #0 {
  %4 = alloca i32, align 4
  %5 = alloca ptr, align 8
  %6 = alloca ptr, align 8
  %7 = alloca %struct.sigaction, align 8
  %8 = alloca %struct.__sigset_t, align 8
  store i32 %0, ptr %4, align 4
  store ptr %1, ptr %5, align 8
  store ptr %2, ptr %6, align 8
  %9 = load ptr, ptr %6, align 8
  %10 = icmp ne ptr %9, null
  br i1 %10, label %11, label %30

11:                                               ; preds = %3
  %12 = load i32, ptr %4, align 4
  %13 = sub nsw i32 %12, 1
  %14 = sext i32 %13 to i64
  %15 = getelementptr inbounds [65 x %struct._zend_signal_entry_t], ptr getelementptr inbounds (%struct._zend_signal_globals_t, ptr @zend_signal_globals, i32 0, i32 6), i64 0, i64 %14
  %16 = getelementptr inbounds %struct._zend_signal_entry_t, ptr %15, i32 0, i32 0
  %17 = load i32, ptr %16, align 8
  %18 = load ptr, ptr %6, align 8
  %19 = getelementptr inbounds %struct.sigaction, ptr %18, i32 0, i32 2
  store i32 %17, ptr %19, align 8
  %20 = load i32, ptr %4, align 4
  %21 = sub nsw i32 %20, 1
  %22 = sext i32 %21 to i64
  %23 = getelementptr inbounds [65 x %struct._zend_signal_entry_t], ptr getelementptr inbounds (%struct._zend_signal_globals_t, ptr @zend_signal_globals, i32 0, i32 6), i64 0, i64 %22
  %24 = getelementptr inbounds %struct._zend_signal_entry_t, ptr %23, i32 0, i32 1
  %25 = load ptr, ptr %24, align 8
  %26 = load ptr, ptr %6, align 8
  %27 = getelementptr inbounds %struct.sigaction, ptr %26, i32 0, i32 0
  store ptr %25, ptr %27, align 8
  %28 = load ptr, ptr %6, align 8
  %29 = getelementptr inbounds %struct.sigaction, ptr %28, i32 0, i32 1
  call void @llvm.memcpy.p0.p0.i64(ptr align 8 %29, ptr align 8 @global_sigmask, i64 128, i1 false)
  br label %30

30:                                               ; preds = %11, %3
  %31 = load ptr, ptr %5, align 8
  %32 = icmp ne ptr %31, null
  br i1 %32, label %33, label %95

33:                                               ; preds = %30
  %34 = load ptr, ptr %5, align 8
  %35 = getelementptr inbounds %struct.sigaction, ptr %34, i32 0, i32 2
  %36 = load i32, ptr %35, align 8
  %37 = load i32, ptr %4, align 4
  %38 = sub nsw i32 %37, 1
  %39 = sext i32 %38 to i64
  %40 = getelementptr inbounds [65 x %struct._zend_signal_entry_t], ptr getelementptr inbounds (%struct._zend_signal_globals_t, ptr @zend_signal_globals, i32 0, i32 6), i64 0, i64 %39
  %41 = getelementptr inbounds %struct._zend_signal_entry_t, ptr %40, i32 0, i32 0
  store i32 %36, ptr %41, align 8
  %42 = load ptr, ptr %5, align 8
  %43 = getelementptr inbounds %struct.sigaction, ptr %42, i32 0, i32 2
  %44 = load i32, ptr %43, align 8
  %45 = and i32 %44, 4
  %46 = icmp ne i32 %45, 0
  br i1 %46, label %47, label %56

47:                                               ; preds = %33
  %48 = load ptr, ptr %5, align 8
  %49 = getelementptr inbounds %struct.sigaction, ptr %48, i32 0, i32 0
  %50 = load ptr, ptr %49, align 8
  %51 = load i32, ptr %4, align 4
  %52 = sub nsw i32 %51, 1
  %53 = sext i32 %52 to i64
  %54 = getelementptr inbounds [65 x %struct._zend_signal_entry_t], ptr getelementptr inbounds (%struct._zend_signal_globals_t, ptr @zend_signal_globals, i32 0, i32 6), i64 0, i64 %53
  %55 = getelementptr inbounds %struct._zend_signal_entry_t, ptr %54, i32 0, i32 1
  store ptr %50, ptr %55, align 8
  br label %65

56:                                               ; preds = %33
  %57 = load ptr, ptr %5, align 8
  %58 = getelementptr inbounds %struct.sigaction, ptr %57, i32 0, i32 0
  %59 = load ptr, ptr %58, align 8
  %60 = load i32, ptr %4, align 4
  %61 = sub nsw i32 %60, 1
  %62 = sext i32 %61 to i64
  %63 = getelementptr inbounds [65 x %struct._zend_signal_entry_t], ptr getelementptr inbounds (%struct._zend_signal_globals_t, ptr @zend_signal_globals, i32 0, i32 6), i64 0, i64 %62
  %64 = getelementptr inbounds %struct._zend_signal_entry_t, ptr %63, i32 0, i32 1
  store ptr %59, ptr %64, align 8
  br label %65

65:                                               ; preds = %56, %47
  call void @llvm.memset.p0.i64(ptr align 8 %7, i8 0, i64 152, i1 false)
  %66 = load i32, ptr %4, align 4
  %67 = sub nsw i32 %66, 1
  %68 = sext i32 %67 to i64
  %69 = getelementptr inbounds [65 x %struct._zend_signal_entry_t], ptr getelementptr inbounds (%struct._zend_signal_globals_t, ptr @zend_signal_globals, i32 0, i32 6), i64 0, i64 %68
  %70 = getelementptr inbounds %struct._zend_signal_entry_t, ptr %69, i32 0, i32 1
  %71 = load ptr, ptr %70, align 8
  %72 = icmp eq ptr %71, inttoptr (i64 1 to ptr)
  br i1 %72, label %73, label %75

73:                                               ; preds = %65
  %74 = getelementptr inbounds %struct.sigaction, ptr %7, i32 0, i32 0
  store ptr inttoptr (i64 1 to ptr), ptr %74, align 8
  br label %84

75:                                               ; preds = %65
  %76 = load ptr, ptr %5, align 8
  %77 = getelementptr inbounds %struct.sigaction, ptr %76, i32 0, i32 2
  %78 = load i32, ptr %77, align 8
  %79 = and i32 %78, 1073741823
  %80 = or i32 134217732, %79
  %81 = getelementptr inbounds %struct.sigaction, ptr %7, i32 0, i32 2
  store i32 %80, ptr %81, align 8
  %82 = getelementptr inbounds %struct.sigaction, ptr %7, i32 0, i32 0
  store ptr @zend_signal_handler_defer, ptr %82, align 8
  %83 = getelementptr inbounds %struct.sigaction, ptr %7, i32 0, i32 1
  call void @llvm.memcpy.p0.p0.i64(ptr align 8 %83, ptr align 8 @global_sigmask, i64 128, i1 false)
  br label %84

84:                                               ; preds = %75, %73
  %85 = load i32, ptr %4, align 4
  %86 = call i32 @sigaction(i32 noundef %85, ptr noundef %7, ptr noundef null) #8
  %87 = icmp slt i32 %86, 0
  br i1 %87, label %88, label %90

88:                                               ; preds = %84
  %89 = load i32, ptr %4, align 4
  call void (i32, ptr, ...) @zend_error_noreturn(i32 noundef 1, ptr noundef @.str, i32 noundef %89) #9
  unreachable

90:                                               ; preds = %84
  %91 = call i32 @sigemptyset(ptr noundef %8) #8
  %92 = load i32, ptr %4, align 4
  %93 = call i32 @sigaddset(ptr noundef %8, i32 noundef %92) #8
  %94 = call i32 @sigprocmask(i32 noundef 1, ptr noundef %8, ptr noundef null) #8
  br label %95

95:                                               ; preds = %90, %30
  ret void
}