; Function Attrs: nounwind uwtable
define void @zend_sigaction(i32 noundef %0, ptr noundef readonly %1, ptr noundef writeonly %2) local_unnamed_addr #0 {
  %4 = alloca %struct.sigaction, align 8
  %5 = alloca %struct.__sigset_t, align 8
  %.not = icmp eq ptr %2, null
  br i1 %.not, label %15, label %6

6:                                                ; preds = %3
  %7 = add nsw i32 %0, -1
  %8 = sext i32 %7 to i64
  %9 = getelementptr inbounds %struct._zend_signal_globals_t, ptr @zend_signal_globals, i64 0, i32 6, i64 %8
  %10 = load i32, ptr %9, align 8
  %11 = getelementptr inbounds i8, ptr %2, i64 136
  store i32 %10, ptr %11, align 8
  %12 = getelementptr inbounds i8, ptr %9, i64 8
  %13 = load ptr, ptr %12, align 8
  store ptr %13, ptr %2, align 8
  %14 = getelementptr inbounds i8, ptr %2, i64 8
  tail call void @llvm.memcpy.p0.p0.i64(ptr noundef nonnull align 8 dereferenceable(128) %14, ptr noundef nonnull align 8 dereferenceable(128) @global_sigmask, i64 128, i1 false)
  br label %15

15:                                               ; preds = %6, %3
  %.not19 = icmp eq ptr %1, null
  br i1 %.not19, label %39, label %16

16:                                               ; preds = %15
  %17 = getelementptr inbounds i8, ptr %1, i64 136
  %18 = load i32, ptr %17, align 8
  %19 = add nsw i32 %0, -1
  %20 = sext i32 %19 to i64
  %21 = getelementptr inbounds %struct._zend_signal_globals_t, ptr @zend_signal_globals, i64 0, i32 6, i64 %20
  store i32 %18, ptr %21, align 8
  %.sink = load ptr, ptr %1, align 8
  %22 = getelementptr inbounds i8, ptr %21, i64 8
  store ptr %.sink, ptr %22, align 8
  %23 = getelementptr inbounds i8, ptr %4, i64 8
  call void @llvm.memset.p0.i64(ptr noundef nonnull align 8 dereferenceable(152) %23, i8 0, i64 144, i1 false)
  %24 = icmp eq ptr %.sink, inttoptr (i64 1 to ptr)
  br i1 %24, label %31, label %25

25:                                               ; preds = %16
  %26 = load i32, ptr %17, align 8
  %27 = and i32 %26, 939524091
  %28 = or disjoint i32 %27, 134217732
  %29 = getelementptr inbounds i8, ptr %4, i64 136
  store i32 %28, ptr %29, align 8
  %30 = getelementptr inbounds i8, ptr %4, i64 8
  call void @llvm.memcpy.p0.p0.i64(ptr noundef nonnull align 8 dereferenceable(128) %30, ptr noundef nonnull align 8 dereferenceable(128) @global_sigmask, i64 128, i1 false)
  br label %31

31:                                               ; preds = %16, %25
  %zend_signal_handler_defer.sink = phi ptr [ @zend_signal_handler_defer, %25 ], [ inttoptr (i64 1 to ptr), %16 ]
  store ptr %zend_signal_handler_defer.sink, ptr %4, align 8
  %32 = call i32 @sigaction(i32 noundef %0, ptr noundef nonnull %4, ptr noundef null) #9
  %33 = icmp slt i32 %32, 0
  br i1 %33, label %34, label %35

34:                                               ; preds = %31
  call void (i32, ptr, ...) @zend_error_noreturn(i32 noundef 1, ptr noundef nonnull @.str, i32 noundef %0) #10
  unreachable

35:                                               ; preds = %31
  %36 = call i32 @sigemptyset(ptr noundef nonnull %5) #9
  %37 = call i32 @sigaddset(ptr noundef nonnull %5, i32 noundef %0) #9
  %38 = call i32 @sigprocmask(i32 noundef 1, ptr noundef nonnull %5, ptr noundef null) #9
  br label %39

39:                                               ; preds = %35, %15
  ret void
}